; ModuleID = '10/1176.c'
source_filename = "10/1176.c"
target datalayout = "e-m:e-p270:32:32-p271:32:32-p272:64:64-i64:64-f80:128-n8:16:32:64-S128"
target triple = "x86_64-pc-linux-gnu"

@.str = private unnamed_addr constant [3 x i8] c"%d\00", align 1
@.str.1 = private unnamed_addr constant [4 x i8] c"%d\0A\00", align 1

; Function Attrs: noinline nounwind uwtable
define dso_local i32 @main() #0 {
  %1 = alloca i32, align 4
  %2 = alloca i32, align 4
  %3 = alloca i32, align 4
  %4 = alloca i32, align 4
  %5 = alloca [26 x i32], align 16
  %6 = alloca [26 x i32], align 16
  %7 = alloca i32, align 4
  store i32 0, i32* %1, align 4
  %8 = call i32 (i8*, ...) @__isoc99_scanf(i8* getelementptr inbounds ([3 x i8], [3 x i8]* @.str, i64 0, i64 0), i32* %4)
  store i32 0, i32* %2, align 4
  br label %9

9:                                                ; preds = %18, %0
  %10 = load i32, i32* %2, align 4
  %11 = load i32, i32* %4, align 4
  %12 = icmp slt i32 %10, %11
  br i1 %12, label %13, label %21

13:                                               ; preds = %9
  %14 = load i32, i32* %2, align 4
  %15 = sext i32 %14 to i64
  %16 = getelementptr inbounds [26 x i32], [26 x i32]* %5, i64 0, i64 %15
  %17 = call i32 (i8*, ...) @__isoc99_scanf(i8* getelementptr inbounds ([3 x i8], [3 x i8]* @.str, i64 0, i64 0), i32* %16)
  br label %18

18:                                               ; preds = %13
  %19 = load i32, i32* %2, align 4
  %20 = add nsw i32 %19, 1
  store i32 %20, i32* %2, align 4
  br label %9

21:                                               ; preds = %9
  %22 = getelementptr inbounds [26 x i32], [26 x i32]* %6, i64 0, i64 0
  store i32 1, i32* %22, align 16
  store i32 1, i32* %7, align 4
  store i32 1, i32* %3, align 4
  br label %23

23:                                               ; preds = %83, %21
  %24 = load i32, i32* %3, align 4
  %25 = load i32, i32* %4, align 4
  %26 = icmp slt i32 %24, %25
  br i1 %26, label %27, label %86

27:                                               ; preds = %23
  %28 = load i32, i32* %3, align 4
  %29 = sext i32 %28 to i64
  %30 = getelementptr inbounds [26 x i32], [26 x i32]* %6, i64 0, i64 %29
  store i32 1, i32* %30, align 4
  store i32 0, i32* %2, align 4
  br label %31

31:                                               ; preds = %67, %27
  %32 = load i32, i32* %2, align 4
  %33 = load i32, i32* %3, align 4
  %34 = icmp slt i32 %32, %33
  br i1 %34, label %35, label %70

35:                                               ; preds = %31
  %36 = load i32, i32* %2, align 4
  %37 = sext i32 %36 to i64
  %38 = getelementptr inbounds [26 x i32], [26 x i32]* %5, i64 0, i64 %37
  %39 = load i32, i32* %38, align 4
  %40 = load i32, i32* %3, align 4
  %41 = sext i32 %40 to i64
  %42 = getelementptr inbounds [26 x i32], [26 x i32]* %5, i64 0, i64 %41
  %43 = load i32, i32* %42, align 4
  %44 = icmp sge i32 %39, %43
  br i1 %44, label %45, label %66

45:                                               ; preds = %35
  %46 = load i32, i32* %2, align 4
  %47 = sext i32 %46 to i64
  %48 = getelementptr inbounds [26 x i32], [26 x i32]* %6, i64 0, i64 %47
  %49 = load i32, i32* %48, align 4
  %50 = add nsw i32 %49, 1
  %51 = load i32, i32* %3, align 4
  %52 = sext i32 %51 to i64
  %53 = getelementptr inbounds [26 x i32], [26 x i32]* %6, i64 0, i64 %52
  %54 = load i32, i32* %53, align 4
  %55 = icmp sgt i32 %50, %54
  br i1 %55, label %56, label %65

56:                                               ; preds = %45
  %57 = load i32, i32* %2, align 4
  %58 = sext i32 %57 to i64
  %59 = getelementptr inbounds [26 x i32], [26 x i32]* %6, i64 0, i64 %58
  %60 = load i32, i32* %59, align 4
  %61 = add nsw i32 %60, 1
  %62 = load i32, i32* %3, align 4
  %63 = sext i32 %62 to i64
  %64 = getelementptr inbounds [26 x i32], [26 x i32]* %6, i64 0, i64 %63
  store i32 %61, i32* %64, align 4
  br label %65

65:                                               ; preds = %56, %45
  br label %66

66:                                               ; preds = %65, %35
  br label %67

67:                                               ; preds = %66
  %68 = load i32, i32* %2, align 4
  %69 = add nsw i32 %68, 1
  store i32 %69, i32* %2, align 4
  br label %31

70:                                               ; preds = %31
  %71 = load i32, i32* %3, align 4
  %72 = sext i32 %71 to i64
  %73 = getelementptr inbounds [26 x i32], [26 x i32]* %6, i64 0, i64 %72
  %74 = load i32, i32* %73, align 4
  %75 = load i32, i32* %7, align 4
  %76 = icmp sgt i32 %74, %75
  br i1 %76, label %77, label %82

77:                                               ; preds = %70
  %78 = load i32, i32* %3, align 4
  %79 = sext i32 %78 to i64
  %80 = getelementptr inbounds [26 x i32], [26 x i32]* %6, i64 0, i64 %79
  %81 = load i32, i32* %80, align 4
  store i32 %81, i32* %7, align 4
  br label %82

82:                                               ; preds = %77, %70
  br label %83

83:                                               ; preds = %82
  %84 = load i32, i32* %3, align 4
  %85 = add nsw i32 %84, 1
  store i32 %85, i32* %3, align 4
  br label %23

86:                                               ; preds = %23
  %87 = load i32, i32* %7, align 4
  %88 = call i32 (i8*, ...) @printf(i8* getelementptr inbounds ([4 x i8], [4 x i8]* @.str.1, i64 0, i64 0), i32 %87)
  ret i32 0
}

declare dso_local i32 @__isoc99_scanf(i8*, ...) #1

declare dso_local i32 @printf(i8*, ...) #1


!llvm.module.flags = !{!0}
!llvm.ident = !{!1}

!0 = !{i32 1, !"wchar_size", i32 4}
!1 = !{!"clang version 10.0.0-4ubuntu1 "}
